(lp1
(I0
F0
F90
F0
(lp2
I0
aI0
aI0
aI0
aI0
aI0
aI0
aI0
aI0
aI0
aI0
aI0
aI0
aI0
aI0
aI0
atp3
a(I1
F0
F83.191199999999995
F1.2191999999999999e-08
(lp4
I3
aI3
aI3
aI3
aI2
aI2
aI2
aI2
aI1
aI1
aI1
aI1
aI0
aI0
aI0
aI0
atp5
a(I2
F90
F83.191199999999995
F1.2191999999999999e-08
(lp6
I0
aI1
aI2
aI3
aI0
aI1
aI2
aI3
aI0
aI1
aI2
aI3
aI0
aI1
aI2
aI3
atp7
a(I3
F180
F83.191199999999995
F1.2191999999999999e-08
(lp8
I0
aI0
aI0
aI0
aI1
aI1
aI1
aI1
aI2
aI2
aI2
aI2
aI3
aI3
aI3
aI3
atp9
a(I4
F270
F83.191199999999995
F1.2191999999999999e-08
(lp10
I3
aI2
aI1
aI0
aI3
aI2
aI1
aI0
aI3
aI2
aI1
aI0
aI3
aI2
aI1
aI0
atp11
a(I5
F45
F80.347999999999999
F1.7243000000000001e-08
(lp12
I3
aI4
aI5
aI6
aI2
aI3
aI4
aI5
aI1
aI2
aI3
aI4
aI0
aI1
aI2
aI3
atp13
a(I6
F135
F80.347999999999999
F1.7243000000000001e-08
(lp14
I0
aI1
aI2
aI3
aI1
aI2
aI3
aI4
aI2
aI3
aI4
aI5
aI3
aI4
aI5
aI6
atp15
a(I7
F225
F80.347999999999999
F1.7243000000000001e-08
(lp16
I3
aI2
aI1
aI0
aI4
aI3
aI2
aI1
aI5
aI4
aI3
aI2
aI6
aI5
aI4
aI3
atp17
a(I8
F315
F80.347999999999999
F1.7243000000000001e-08
(lp18
I6
aI5
aI4
aI3
aI5
aI4
aI3
aI2
aI4
aI3
aI2
aI1
aI3
aI2
aI1
aI0
atp19
a(I9
F0
F76.283799999999999
F2.4385e-08
(lp20
I6
aI6
aI6
aI6
aI4
aI4
aI4
aI4
aI2
aI2
aI2
aI2
aI0
aI0
aI0
aI0
atp21
a(I10
F90
F76.283799999999999
F2.4385e-08
(lp22
I0
aI2
aI4
aI6
aI0
aI2
aI4
aI6
aI0
aI2
aI4
aI6
aI0
aI2
aI4
aI6
atp23
a(I11
F180
F76.283799999999999
F2.4385e-08
(lp24
I0
aI0
aI0
aI0
aI2
aI2
aI2
aI2
aI4
aI4
aI4
aI4
aI6
aI6
aI6
aI6
atp25
a(I12
F270
F76.283799999999999
F2.4385e-08
(lp26
I6
aI4
aI2
aI0
aI6
aI4
aI2
aI0
aI6
aI4
aI2
aI0
aI6
aI4
aI2
aI0
atp27
a(I13
F26.565100000000001
F74.627099999999999
F2.7263000000000001e-08
(lp28
I6
aI7
aI8
aI9
aI4
aI5
aI6
aI7
aI2
aI3
aI4
aI5
aI0
aI1
aI2
aI3
atp29
a(I14
F63.434899999999999
F74.627099999999999
F2.7263000000000001e-08
(lp30
I3
aI5
aI7
aI9
aI2
aI4
aI6
aI8
aI1
aI3
aI5
aI7
aI0
aI2
aI4
aI6
atp31
a(I15
F116.5651
F74.627099999999999
F2.7263000000000001e-08
(lp32
I0
aI2
aI4
aI6
aI1
aI3
aI5
aI7
aI2
aI4
aI6
aI8
aI3
aI5
aI7
aI9
atp33
a(I16
F153.4349
F74.627099999999999
F2.7263000000000001e-08
(lp34
I0
aI1
aI2
aI3
aI2
aI3
aI4
aI5
aI4
aI5
aI6
aI7
aI6
aI7
aI8
aI9
atp35
a(I17
F206.5651
F74.627099999999999
F2.7263000000000001e-08
(lp36
I3
aI2
aI1
aI0
aI5
aI4
aI3
aI2
aI7
aI6
aI5
aI4
aI9
aI8
aI7
aI6
atp37
a(I18
F243.4349
F74.627099999999999
F2.7263000000000001e-08
(lp38
I6
aI4
aI2
aI0
aI7
aI5
aI3
aI1
aI8
aI6
aI4
aI2
aI9
aI7
aI5
aI3
atp39
a(I19
F296.56509999999997
F74.627099999999999
F2.7263000000000001e-08
(lp40
I9
aI7
aI5
aI3
aI8
aI6
aI4
aI2
aI7
aI5
aI3
aI1
aI6
aI4
aI2
aI0
atp41
a(I20
F333.43490000000003
F74.627099999999999
F2.7263000000000001e-08
(lp42
I9
aI8
aI7
aI6
aI7
aI6
aI5
aI4
aI5
aI4
aI3
aI2
aI3
aI2
aI1
aI0
atp43
a(I21
F45
F70.407499999999999
F3.4485000000000001e-08
(lp44
I6
aI8
aI10
aI12
aI4
aI6
aI8
aI10
aI2
aI4
aI6
aI8
aI0
aI2
aI4
aI6
atp45
a(I22
F135
F70.407499999999999
F3.4485000000000001e-08
(lp46
I0
aI2
aI4
aI6
aI2
aI4
aI6
aI8
aI4
aI6
aI8
aI10
aI6
aI8
aI10
aI12
atp47
a(I23
F225
F70.407499999999999
F3.4485000000000001e-08
(lp48
I6
aI4
aI2
aI0
aI8
aI6
aI4
aI2
aI10
aI8
aI6
aI4
aI12
aI10
aI8
aI6
atp49
a(I24
F315
F70.407499999999999
F3.4485000000000001e-08
(lp50
I12
aI10
aI8
aI6
aI10
aI8
aI6
aI4
aI8
aI6
aI4
aI2
aI6
aI4
aI2
aI0
atp51
a(I25
F0
F69.165499999999994
F3.6576999999999997e-08
(lp52
I9
aI9
aI9
aI9
aI6
aI6
aI6
aI6
aI3
aI3
aI3
aI3
aI0
aI0
aI0
aI0
atp53
a(I26
F90
F69.165499999999994
F3.6576999999999997e-08
(lp54
I0
aI3
aI6
aI9
aI0
aI3
aI6
aI9
aI0
aI3
aI6
aI9
aI0
aI3
aI6
aI9
atp55
a(I27
F180
F69.165499999999994
F3.6576999999999997e-08
(lp56
I0
aI0
aI0
aI0
aI3
aI3
aI3
aI3
aI6
aI6
aI6
aI6
aI9
aI9
aI9
aI9
atp57
a(I28
F270
F69.165499999999994
F3.6576999999999997e-08
(lp58
I9
aI6
aI3
aI0
aI9
aI6
aI3
aI0
aI9
aI6
aI3
aI0
aI9
aI6
aI3
aI0
atp59
a(I29
F18.434899999999999
F67.981300000000005
F3.8555999999999998e-08
(lp60
I9
aI10
aI11
aI12
aI6
aI7
aI8
aI9
aI3
aI4
aI5
aI6
aI0
aI1
aI2
aI3
atp61
a(I30
F71.565100000000001
F67.981300000000005
F3.8555999999999998e-08
(lp62
I3
aI6
aI9
aI12
aI2
aI5
aI8
aI11
aI1
aI4
aI7
aI10
aI0
aI3
aI6
aI9
atp63
a(I31
F108.4349
F67.981300000000005
F3.8555999999999998e-08
(lp64
I0
aI3
aI6
aI9
aI1
aI4
aI7
aI10
aI2
aI5
aI8
aI11
aI3
aI6
aI9
aI12
atp65
a(I32
F161.5651
F67.981300000000005
F3.8555999999999998e-08
(lp66
I0
aI1
aI2
aI3
aI3
aI4
aI5
aI6
aI6
aI7
aI8
aI9
aI9
aI10
aI11
aI12
atp67
a(I33
F198.4349
F67.981300000000005
F3.8555999999999998e-08
(lp68
I3
aI2
aI1
aI0
aI6
aI5
aI4
aI3
aI9
aI8
aI7
aI6
aI12
aI11
aI10
aI9
atp69
a(I34
F251.5651
F67.981300000000005
F3.8555999999999998e-08
(lp70
I9
aI6
aI3
aI0
aI10
aI7
aI4
aI1
aI11
aI8
aI5
aI2
aI12
aI9
aI6
aI3
atp71
a(I35
F288.43490000000003
F67.981300000000005
F3.8555999999999998e-08
(lp72
I12
aI9
aI6
aI3
aI11
aI8
aI5
aI2
aI10
aI7
aI4
aI1
aI9
aI6
aI3
aI0
atp73
a(I36
F341.56509999999997
F67.981300000000005
F3.8555999999999998e-08
(lp74
I12
aI11
aI10
aI9
aI9
aI8
aI7
aI6
aI6
aI5
aI4
aI3
aI3
aI2
aI1
aI0
atp75
a(I37
F33.690100000000001
F64.693399999999997
F4.3959999999999998e-08
(lp76
I9
aI11
aI13
aI15
aI6
aI8
aI10
aI12
aI3
aI5
aI7
aI9
aI0
aI2
aI4
aI6
atp77
a(I38
F56.309899999999999
F64.693399999999997
F4.3959999999999998e-08
(lp78
I6
aI9
aI12
aI15
aI4
aI7
aI10
aI13
aI2
aI5
aI8
aI11
aI0
aI3
aI6
aI9
atp79
a(I39
F123.6901
F64.693399999999997
F4.3959999999999998e-08
(lp80
I0
aI3
aI6
aI9
aI2
aI5
aI8
aI11
aI4
aI7
aI10
aI13
aI6
aI9
aI12
aI15
atp81
a(I40
F146.3099
F64.693399999999997
F4.3959999999999998e-08
(lp82
I0
aI2
aI4
aI6
aI3
aI5
aI7
aI9
aI6
aI8
aI10
aI12
aI9
aI11
aI13
aI15
atp83
a(I41
F213.6901
F64.693399999999997
F4.3959999999999998e-08
(lp84
I6
aI4
aI2
aI0
aI9
aI7
aI5
aI3
aI12
aI10
aI8
aI6
aI15
aI13
aI11
aI9
atp85
a(I42
F236.3099
F64.693399999999997
F4.3959999999999998e-08
(lp86
I9
aI6
aI3
aI0
aI11
aI8
aI5
aI2
aI13
aI10
aI7
aI4
aI15
aI12
aI9
aI6
atp87
a(I43
F303.69009999999997
F64.693399999999997
F4.3959999999999998e-08
(lp88
I15
aI12
aI9
aI6
aI13
aI10
aI7
aI4
aI11
aI8
aI5
aI2
aI9
aI6
aI3
aI0
atp89
a(I44
F326.30990000000003
F64.693399999999997
F4.3959999999999998e-08
(lp90
I15
aI13
aI11
aI9
aI12
aI10
aI8
aI6
aI9
aI7
aI5
aI3
aI6
aI4
aI2
aI0
atp91
a(I45
F0
F61.691000000000003
F4.8768999999999998e-08
(lp92
I12
aI12
aI12
aI12
aI8
aI8
aI8
aI8
aI4
aI4
aI4
aI4
aI0
aI0
aI0
aI0
atp93
a(I46
F90
F61.691000000000003
F4.8768999999999998e-08
(lp94
I0
aI4
aI8
aI12
aI0
aI4
aI8
aI12
aI0
aI4
aI8
aI12
aI0
aI4
aI8
aI12
atp95
a(I47
F180
F61.691000000000003
F4.8768999999999998e-08
(lp96
I0
aI0
aI0
aI0
aI4
aI4
aI4
aI4
aI8
aI8
aI8
aI8
aI12
aI12
aI12
aI12
atp97
a(I48
F270
F61.691000000000003
F4.8768999999999998e-08
(lp98
I12
aI8
aI4
aI0
aI12
aI8
aI4
aI0
aI12
aI8
aI4
aI0
aI12
aI8
aI4
aI0
atp99
a(I49
F14.036199999999999
F60.736899999999999
F5.0269999999999999e-08
(lp100
I12
aI13
aI14
aI15
aI8
aI9
aI10
aI11
aI4
aI5
aI6
aI7
aI0
aI1
aI2
aI3
atp101
a(I50
F75.963800000000006
F60.736899999999999
F5.0269999999999999e-08
(lp102
I3
aI7
aI11
aI15
aI2
aI6
aI10
aI14
aI1
aI5
aI9
aI13
aI0
aI4
aI8
aI12
atp103
a(I51
F104.03619999999999
F60.736899999999999
F5.0269999999999999e-08
(lp104
I0
aI4
aI8
aI12
aI1
aI5
aI9
aI13
aI2
aI6
aI10
aI14
aI3
aI7
aI11
aI15
atp105
a(I52
F165.96379999999999
F60.736899999999999
F5.0269999999999999e-08
(lp106
I0
aI1
aI2
aI3
aI4
aI5
aI6
aI7
aI8
aI9
aI10
aI11
aI12
aI13
aI14
aI15
atp107
a(I53
F194.03620000000001
F60.736899999999999
F5.0269999999999999e-08
(lp108
I3
aI2
aI1
aI0
aI7
aI6
aI5
aI4
aI11
aI10
aI9
aI8
aI15
aI14
aI13
aI12
atp109
a(I54
F255.96379999999999
F60.736899999999999
F5.0269999999999999e-08
(lp110
I12
aI8
aI4
aI0
aI13
aI9
aI5
aI1
aI14
aI10
aI6
aI2
aI15
aI11
aI7
aI3
atp111
a(I55
F284.03620000000001
F60.736899999999999
F5.0269999999999999e-08
(lp112
I15
aI11
aI7
aI3
aI14
aI10
aI6
aI2
aI13
aI9
aI5
aI1
aI12
aI8
aI4
aI0
atp113
a(I56
F345.96379999999999
F60.736899999999999
F5.0269999999999999e-08
(lp114
I15
aI14
aI13
aI12
aI11
aI10
aI9
aI8
aI7
aI6
aI5
aI4
aI3
aI2
aI1
aI0
atp115
a(I57
F45
F59.8018
F5.1727999999999998e-08
(lp116
I9
aI12
aI15
aI18
aI6
aI9
aI12
aI15
aI3
aI6
aI9
aI12
aI0
aI3
aI6
aI9
atp117
a(I58
F135
F59.8018
F5.1727999999999998e-08
(lp118
I0
aI3
aI6
aI9
aI3
aI6
aI9
aI12
aI6
aI9
aI12
aI15
aI9
aI12
aI15
aI18
atp119
a(I59
F225
F59.8018
F5.1727999999999998e-08
(lp120
I9
aI6
aI3
aI0
aI12
aI9
aI6
aI3
aI15
aI12
aI9
aI6
aI18
aI15
aI12
aI9
atp121
a(I60
F315
F59.8018
F5.1727999999999998e-08
(lp122
I18
aI15
aI12
aI9
aI15
aI12
aI9
aI6
aI12
aI9
aI6
aI3
aI9
aI6
aI3
aI0
atp123
a(I61
F26.565100000000001
F57.981000000000002
F5.4526000000000001e-08
(lp124
I12
aI14
aI16
aI18
aI8
aI10
aI12
aI14
aI4
aI6
aI8
aI10
aI0
aI2
aI4
aI6
atp125
a(I62
F63.434899999999999
F57.981000000000002
F5.4526000000000001e-08
(lp126
I6
aI10
aI14
aI18
aI4
aI8
aI12
aI16
aI2
aI6
aI10
aI14
aI0
aI4
aI8
aI12
atp127
a(I63
F116.5651
F57.981000000000002
F5.4526000000000001e-08
(lp128
I0
aI4
aI8
aI12
aI2
aI6
aI10
aI14
aI4
aI8
aI12
aI16
aI6
aI10
aI14
aI18
atp129
a(I64
F153.4349
F57.981000000000002
F5.4526000000000001e-08
(lp130
I0
aI2
aI4
aI6
aI4
aI6
aI8
aI10
aI8
aI10
aI12
aI14
aI12
aI14
aI16
aI18
atp131
a(I65
F206.5651
F57.981000000000002
F5.4526000000000001e-08
(lp132
I6
aI4
aI2
aI0
aI10
aI8
aI6
aI4
aI14
aI12
aI10
aI8
aI18
aI16
aI14
aI12
atp133
a(I66
F243.4349
F57.981000000000002
F5.4526000000000001e-08
(lp134
I12
aI8
aI4
aI0
aI14
aI10
aI6
aI2
aI16
aI12
aI8
aI4
aI18
aI14
aI10
aI6
atp135
a(I67
F296.56509999999997
F57.981000000000002
F5.4526000000000001e-08
(lp136
I18
aI14
aI10
aI6
aI16
aI12
aI8
aI4
aI14
aI10
aI6
aI2
aI12
aI8
aI4
aI0
atp137
a(I68
F333.43490000000003
F57.981000000000002
F5.4526000000000001e-08
(lp138
I18
aI16
aI14
aI12
aI14
aI12
aI10
aI8
aI10
aI8
aI6
aI4
aI6
aI4
aI2
aI0
atp139
a(I69
F0
F53.645299999999999
F6.0962e-08
(lp140
I15
aI15
aI15
aI15
aI10
aI10
aI10
aI10
aI5
aI5
aI5
aI5
aI0
aI0
aI0
aI0
atp141
a(I70
F36.869900000000001
F53.645299999999999
F6.0962e-08
(lp142
I12
aI15
aI18
aI21
aI8
aI11
aI14
aI17
aI4
aI7
aI10
aI13
aI0
aI3
aI6
aI9
atp143
a(I71
F53.130099999999999
F53.645299999999999
F6.0962e-08
(lp144
I9
aI13
aI17
aI21
aI6
aI10
aI14
aI18
aI3
aI7
aI11
aI15
aI0
aI4
aI8
aI12
atp145
a(I72
F90
F53.645299999999999
F6.0962e-08
(lp146
I0
aI5
aI10
aI15
aI0
aI5
aI10
aI15
aI0
aI5
aI10
aI15
aI0
aI5
aI10
aI15
atp147
a(I73
F126.8699
F53.645299999999999
F6.0962e-08
(lp148
I0
aI4
aI8
aI12
aI3
aI7
aI11
aI15
aI6
aI10
aI14
aI18
aI9
aI13
aI17
aI21
atp149
a(I74
F143.1301
F53.645299999999999
F6.0962e-08
(lp150
I0
aI3
aI6
aI9
aI4
aI7
aI10
aI13
aI8
aI11
aI14
aI17
aI12
aI15
aI18
aI21
atp151
a(I75
F180
F53.645299999999999
F6.0962e-08
(lp152
I0
aI0
aI0
aI0
aI5
aI5
aI5
aI5
aI10
aI10
aI10
aI10
aI15
aI15
aI15
aI15
atp153
a(I76
F216.8699
F53.645299999999999
F6.0962e-08
(lp154
I9
aI6
aI3
aI0
aI13
aI10
aI7
aI4
aI17
aI14
aI11
aI8
aI21
aI18
aI15
aI12
atp155
a(I77
F233.1301
F53.645299999999999
F6.0962e-08
(lp156
I12
aI8
aI4
aI0
aI15
aI11
aI7
aI3
aI18
aI14
aI10
aI6
aI21
aI17
aI13
aI9
atp157
a(I78
F270
F53.645299999999999
F6.0962e-08
(lp158
I15
aI10
aI5
aI0
aI15
aI10
aI5
aI0
aI15
aI10
aI5
aI0
aI15
aI10
aI5
aI0
atp159
a(I79
F306.86989999999997
F53.645299999999999
F6.0962e-08
(lp160
I21
aI17
aI13
aI9
aI18
aI14
aI10
aI6
aI15
aI11
aI7
aI3
aI12
aI8
aI4
aI0
atp161
a(I80
F323.13010000000003
F53.645299999999999
F6.0962e-08
(lp162
I21
aI18
aI15
aI12
aI17
aI14
aI11
aI8
aI13
aI10
aI7
aI4
aI9
aI6
aI3
aI0
atp163
a(I81
F11.309900000000001
F52.805599999999998
F6.2169000000000006e-08
(lp164
I15
aI16
aI17
aI18
aI10
aI11
aI12
aI13
aI5
aI6
aI7
aI8
aI0
aI1
aI2
aI3
atp165
a(I82
F78.690100000000001
F52.805599999999998
F6.2169000000000006e-08
(lp166
I3
aI8
aI13
aI18
aI2
aI7
aI12
aI17
aI1
aI6
aI11
aI16
aI0
aI5
aI10
aI15
atp167
a(I83
F101.3099
F52.805599999999998
F6.2169000000000006e-08
(lp168
I0
aI5
aI10
aI15
aI1
aI6
aI11
aI16
aI2
aI7
aI12
aI17
aI3
aI8
aI13
aI18
atp169
a(I84
F168.6901
F52.805599999999998
F6.2169000000000006e-08
(lp170
I0
aI1
aI2
aI3
aI5
aI6
aI7
aI8
aI10
aI11
aI12
aI13
aI15
aI16
aI17
aI18
atp171
a(I85
F191.3099
F52.805599999999998
F6.2169000000000006e-08
(lp172
I3
aI2
aI1
aI0
aI8
aI7
aI6
aI5
aI13
aI12
aI11
aI10
aI18
aI17
aI16
aI15
atp173
a(I86
F258.69009999999997
F52.805599999999998
F6.2169000000000006e-08
(lp174
I15
aI10
aI5
aI0
aI16
aI11
aI6
aI1
aI17
aI12
aI7
aI2
aI18
aI13
aI8
aI3
atp175
a(I87
F281.30990000000003
F52.805599999999998
F6.2169000000000006e-08
(lp176
I18
aI13
aI8
aI3
aI17
aI12
aI7
aI2
aI16
aI11
aI6
aI1
aI15
aI10
aI5
aI0
atp177
a(I88
F348.69009999999997
F52.805599999999998
F6.2169000000000006e-08
(lp178
I18
aI17
aI16
aI15
aI13
aI12
aI11
aI10
aI8
aI7
aI6
aI5
aI3
aI2
aI1
aI0
atp179
a(I89
F21.801400000000001
F50.323900000000002
F6.5658000000000005e-08
(lp180
I15
aI17
aI19
aI21
aI10
aI12
aI14
aI16
aI5
aI7
aI9
aI11
aI0
aI2
aI4
aI6
atp181
a(I90
F68.198599999999999
F50.323900000000002
F6.5658000000000005e-08
(lp182
I6
aI11
aI16
aI21
aI4
aI9
aI14
aI19
aI2
aI7
aI12
aI17
aI0
aI5
aI10
aI15
atp183
a(I91
F111.8014
F50.323900000000002
F6.5658000000000005e-08
(lp184
I0
aI5
aI10
aI15
aI2
aI7
aI12
aI17
aI4
aI9
aI14
aI19
aI6
aI11
aI16
aI21
atp185
a(I92
F158.1986
F50.323900000000002
F6.5658000000000005e-08
(lp186
I0
aI2
aI4
aI6
aI5
aI7
aI9
aI11
aI10
aI12
aI14
aI16
aI15
aI17
aI19
aI21
atp187
a(I93
F201.8014
F50.323900000000002
F6.5658000000000005e-08
(lp188
I6
aI4
aI2
aI0
aI11
aI9
aI7
aI5
aI16
aI14
aI12
aI10
aI21
aI19
aI17
aI15
atp189
a(I94
F248.1986
F50.323900000000002
F6.5658000000000005e-08
(lp190
I15
aI10
aI5
aI0
aI17
aI12
aI7
aI2
aI19
aI14
aI9
aI4
aI21
aI16
aI11
aI6
atp191
a(I95
F291.8014
F50.323900000000002
F6.5658000000000005e-08
(lp192
I21
aI16
aI11
aI6
aI19
aI14
aI9
aI4
aI17
aI12
aI7
aI2
aI15
aI10
aI5
aI0
atp193
a(I96
F338.1986
F50.323900000000002
F6.5658000000000005e-08
(lp194
I21
aI19
aI17
aI15
aI16
aI14
aI12
aI10
aI11
aI9
aI7
aI5
aI6
aI4
aI2
aI0
atp195
a(I97
F45
F47.882199999999997
F6.8970000000000002e-08
(lp196
I12
aI16
aI20
aI24
aI8
aI12
aI16
aI20
aI4
aI8
aI12
aI16
aI0
aI4
aI8
aI12
atp197
a(I98
F135
F47.882199999999997
F6.8970000000000002e-08
(lp198
I0
aI4
aI8
aI12
aI4
aI8
aI12
aI16
aI8
aI12
aI16
aI20
aI12
aI16
aI20
aI24
atp199
a(I99
F225
F47.882199999999997
F6.8970000000000002e-08
(lp200
I12
aI8
aI4
aI0
aI16
aI12
aI8
aI4
aI20
aI16
aI12
aI8
aI24
aI20
aI16
aI12
atp201
a(I100
F315
F47.882199999999997
F6.8970000000000002e-08
(lp202
I24
aI20
aI16
aI12
aI20
aI16
aI12
aI8
aI16
aI12
aI8
aI4
aI12
aI8
aI4
aI0
atp203
a(I101
F30.963799999999999
F46.267099999999999
F7.1093e-08
(lp204
I15
aI18
aI21
aI24
aI10
aI13
aI16
aI19
aI5
aI8
aI11
aI14
aI0
aI3
aI6
aI9
atp205
a(I102
F59.036200000000001
F46.267099999999999
F7.1093e-08
(lp206
I9
aI14
aI19
aI24
aI6
aI11
aI16
aI21
aI3
aI8
aI13
aI18
aI0
aI5
aI10
aI15
atp207
a(I103
F120.96380000000001
F46.267099999999999
F7.1093e-08
(lp208
I0
aI5
aI10
aI15
aI3
aI8
aI13
aI18
aI6
aI11
aI16
aI21
aI9
aI14
aI19
aI24
atp209
a(I104
F149.03620000000001
F46.267099999999999
F7.1093e-08
(lp210
I0
aI3
aI6
aI9
aI5
aI8
aI11
aI14
aI10
aI13
aI16
aI19
aI15
aI18
aI21
aI24
atp211
a(I105
F210.96379999999999
F46.267099999999999
F7.1093e-08
(lp212
I9
aI6
aI3
aI0
aI14
aI11
aI8
aI5
aI19
aI16
aI13
aI10
aI24
aI21
aI18
aI15
atp213
a(I106
F239.03620000000001
F46.267099999999999
F7.1093e-08
(lp214
I15
aI10
aI5
aI0
aI18
aI13
aI8
aI3
aI21
aI16
aI11
aI6
aI24
aI19
aI14
aI9
atp215
a(I107
F300.96379999999999
F46.267099999999999
F7.1093e-08
(lp216
I24
aI19
aI14
aI9
aI21
aI16
aI11
aI6
aI18
aI13
aI8
aI3
aI15
aI10
aI5
aI0
atp217
a(I108
F329.03620000000001
F46.267099999999999
F7.1093e-08
(lp218
I24
aI21
aI18
aI15
aI19
aI16
aI13
aI10
aI14
aI11
aI8
aI5
aI9
aI6
aI3
aI0
atp219
a(I109
F0
F44.655999999999999
F7.3153999999999995e-08
(lp220
I18
aI18
aI18
aI18
aI12
aI12
aI12
aI12
aI6
aI6
aI6
aI6
aI0
aI0
aI0
aI0
atp221
a(I110
F90
F44.655999999999999
F7.3153999999999995e-08
(lp222
I0
aI6
aI12
aI18
aI0
aI6
aI12
aI18
aI0
aI6
aI12
aI18
aI0
aI6
aI12
aI18
atp223
a(I111
F180
F44.655999999999999
F7.3153999999999995e-08
(lp224
I0
aI0
aI0
aI0
aI6
aI6
aI6
aI6
aI12
aI12
aI12
aI12
aI18
aI18
aI18
aI18
atp225
a(I112
F270
F44.655999999999999
F7.3153999999999995e-08
(lp226
I18
aI12
aI6
aI0
aI18
aI12
aI6
aI0
aI18
aI12
aI6
aI0
aI18
aI12
aI6
aI0
atp227
a(I113
F9.4623000000000008
F43.8504
F7.4163e-08
(lp228
I18
aI19
aI20
aI21
aI12
aI13
aI14
aI15
aI6
aI7
aI8
aI9
aI0
aI1
aI2
aI3
atp229
a(I114
F80.537700000000001
F43.8504
F7.4163e-08
(lp230
I3
aI9
aI15
aI21
aI2
aI8
aI14
aI20
aI1
aI7
aI13
aI19
aI0
aI6
aI12
aI18
atp231
a(I115
F99.462299999999999
F43.8504
F7.4163e-08
(lp232
I0
aI6
aI12
aI18
aI1
aI7
aI13
aI19
aI2
aI8
aI14
aI20
aI3
aI9
aI15
aI21
atp233
a(I116
F170.5377
F43.8504
F7.4163e-08
(lp234
I0
aI1
aI2
aI3
aI6
aI7
aI8
aI9
aI12
aI13
aI14
aI15
aI18
aI19
aI20
aI21
atp235
a(I117
F189.4623
F43.8504
F7.4163e-08
(lp236
I3
aI2
aI1
aI0
aI9
aI8
aI7
aI6
aI15
aI14
aI13
aI12
aI21
aI20
aI19
aI18
atp237
a(I118
F260.53769999999997
F43.8504
F7.4163e-08
(lp238
I18
aI12
aI6
aI0
aI19
aI13
aI7
aI1
aI20
aI14
aI8
aI2
aI21
aI15
aI9
aI3
atp239
a(I119
F279.46230000000003
F43.8504
F7.4163e-08
(lp240
I21
aI15
aI9
aI3
aI20
aI14
aI8
aI2
aI19
aI13
aI7
aI1
aI18
aI12
aI6
aI0
atp241
a(I120
F350.53769999999997
F43.8504
F7.4163e-08
(lp242
I21
aI20
aI19
aI18
aI15
aI14
aI13
aI12
aI9
aI8
aI7
aI6
aI3
aI2
aI1
aI0
atp243
a(I121
F18.434899999999999
F41.4255
F7.7110999999999995e-08
(lp244
I18
aI20
aI22
aI24
aI12
aI14
aI16
aI18
aI6
aI8
aI10
aI12
aI0
aI2
aI4
aI6
atp245
a(I122
F71.565100000000001
F41.4255
F7.7110999999999995e-08
(lp246
I6
aI12
aI18
aI24
aI4
aI10
aI16
aI22
aI2
aI8
aI14
aI20
aI0
aI6
aI12
aI18
atp247
a(I123
F108.4349
F41.4255
F7.7110999999999995e-08
(lp248
I0
aI6
aI12
aI18
aI2
aI8
aI14
aI20
aI4
aI10
aI16
aI22
aI6
aI12
aI18
aI24
atp249
a(I124
F161.5651
F41.4255
F7.7110999999999995e-08
(lp250
I0
aI2
aI4
aI6
aI6
aI8
aI10
aI12
aI12
aI14
aI16
aI18
aI18
aI20
aI22
aI24
atp251
a(I125
F198.4349
F41.4255
F7.7110999999999995e-08
(lp252
I6
aI4
aI2
aI0
aI12
aI10
aI8
aI6
aI18
aI16
aI14
aI12
aI24
aI22
aI20
aI18
atp253
a(I126
F251.5651
F41.4255
F7.7110999999999995e-08
(lp254
I18
aI12
aI6
aI0
aI20
aI14
aI8
aI2
aI22
aI16
aI10
aI4
aI24
aI18
aI12
aI6
atp255
a(I127
F288.43490000000003
F41.4255
F7.7110999999999995e-08
(lp256
I24
aI18
aI12
aI6
aI22
aI16
aI10
aI4
aI20
aI14
aI8
aI2
aI18
aI12
aI6
aI0
atp257
a(I128
F341.56509999999997
F41.4255
F7.7110999999999995e-08
(lp258
I24
aI22
aI20
aI18
aI18
aI16
aI14
aI12
aI12
aI10
aI8
aI6
aI6
aI4
aI2
aI0
atp259
a(I129
F38.659799999999997
F40.612299999999998
F7.8068999999999996e-08
(lp260
I15
aI19
aI23
aI27
aI10
aI14
aI18
aI22
aI5
aI9
aI13
aI17
aI0
aI4
aI8
aI12
atp261
a(I130
F51.340200000000003
F40.612299999999998
F7.8068999999999996e-08
(lp262
I12
aI17
aI22
aI27
aI8
aI13
aI18
aI23
aI4
aI9
aI14
aI19
aI0
aI5
aI10
aI15
atp263
a(I131
F128.65979999999999
F40.612299999999998
F7.8068999999999996e-08
(lp264
I0
aI5
aI10
aI15
aI4
aI9
aI14
aI19
aI8
aI13
aI18
aI23
aI12
aI17
aI22
aI27
atp265
a(I132
F141.34020000000001
F40.612299999999998
F7.8068999999999996e-08
(lp266
I0
aI4
aI8
aI12
aI5
aI9
aI13
aI17
aI10
aI14
aI18
aI22
aI15
aI19
aI23
aI27
atp267
a(I133
F218.65979999999999
F40.612299999999998
F7.8068999999999996e-08
(lp268
I12
aI8
aI4
aI0
aI17
aI13
aI9
aI5
aI22
aI18
aI14
aI10
aI27
aI23
aI19
aI15
atp269
a(I134
F231.34020000000001
F40.612299999999998
F7.8068999999999996e-08
(lp270
I15
aI10
aI5
aI0
aI19
aI14
aI9
aI4
aI23
aI18
aI13
aI8
aI27
aI22
aI17
aI12
atp271
a(I135
F308.65980000000002
F40.612299999999998
F7.8068999999999996e-08
(lp272
I27
aI22
aI17
aI12
aI23
aI18
aI13
aI8
aI19
aI14
aI9
aI4
aI15
aI10
aI5
aI0
atp273
a(I136
F321.34019999999998
F40.612299999999998
F7.8068999999999996e-08
(lp274
I27
aI23
aI19
aI15
aI22
aI18
aI14
aI10
aI17
aI13
aI9
aI5
aI12
aI8
aI4
aI0
atp275
a(I137
F26.565100000000001
F37.316299999999998
F8.1789000000000005e-08
(lp276
I18
aI21
aI24
aI27
aI12
aI15
aI18
aI21
aI6
aI9
aI12
aI15
aI0
aI3
aI6
aI9
atp277
a(I138
F63.434899999999999
F37.316299999999998
F8.1789000000000005e-08
(lp278
I9
aI15
aI21
aI27
aI6
aI12
aI18
aI24
aI3
aI9
aI15
aI21
aI0
aI6
aI12
aI18
atp279
a(I139
F116.5651
F37.316299999999998
F8.1789000000000005e-08
(lp280
I0
aI6
aI12
aI18
aI3
aI9
aI15
aI21
aI6
aI12
aI18
aI24
aI9
aI15
aI21
aI27
atp281
a(I140
F153.4349
F37.316299999999998
F8.1789000000000005e-08
(lp282
I0
aI3
aI6
aI9
aI6
aI9
aI12
aI15
aI12
aI15
aI18
aI21
aI18
aI21
aI24
aI27
atp283
a(I141
F206.5651
F37.316299999999998
F8.1789000000000005e-08
(lp284
I9
aI6
aI3
aI0
aI15
aI12
aI9
aI6
aI21
aI18
aI15
aI12
aI27
aI24
aI21
aI18
atp285
a(I142
F243.4349
F37.316299999999998
F8.1789000000000005e-08
(lp286
I18
aI12
aI6
aI0
aI21
aI15
aI9
aI3
aI24
aI18
aI12
aI6
aI27
aI21
aI15
aI9
atp287
a(I143
F296.56509999999997
F37.316299999999998
F8.1789000000000005e-08
(lp288
I27
aI21
aI15
aI9
aI24
aI18
aI12
aI6
aI21
aI15
aI9
aI3
aI18
aI12
aI6
aI0
atp289
a(I144
F333.43490000000003
F37.316299999999998
F8.1789000000000005e-08
(lp290
I27
aI24
aI21
aI18
aI21
aI18
aI15
aI12
aI15
aI12
aI9
aI6
aI9
aI6
aI3
aI0
atp291
a(I145
F0
F33.911999999999999
F8.5346000000000002e-08
(lp292
I21
aI21
aI21
aI21
aI14
aI14
aI14
aI14
aI7
aI7
aI7
aI7
aI0
aI0
aI0
aI0
atp293
a(I146
F90
F33.911999999999999
F8.5346000000000002e-08
(lp294
I0
aI7
aI14
aI21
aI0
aI7
aI14
aI21
aI0
aI7
aI14
aI21
aI0
aI7
aI14
aI21
atp295
a(I147
F180
F33.911999999999999
F8.5346000000000002e-08
(lp296
I0
aI0
aI0
aI0
aI7
aI7
aI7
aI7
aI14
aI14
aI14
aI14
aI21
aI21
aI21
aI21
atp297
a(I148
F270
F33.911999999999999
F8.5346000000000002e-08
(lp298
I21
aI14
aI7
aI0
aI21
aI14
aI7
aI0
aI21
aI14
aI7
aI0
aI21
aI14
aI7
aI0
atp299
a(I149
F8.1301000000000005
F33.036799999999999
F8.6213000000000006e-08
(lp300
I21
aI22
aI23
aI24
aI14
aI15
aI16
aI17
aI7
aI8
aI9
aI10
aI0
aI1
aI2
aI3
atp301
a(I150
F45
F33.036799999999999
F8.6213000000000006e-08
(lp302
I15
aI20
aI25
aI30
aI10
aI15
aI20
aI25
aI5
aI10
aI15
aI20
aI0
aI5
aI10
aI15
atp303
a(I151
F81.869900000000001
F33.036799999999999
F8.6213000000000006e-08
(lp304
I3
aI10
aI17
aI24
aI2
aI9
aI16
aI23
aI1
aI8
aI15
aI22
aI0
aI7
aI14
aI21
atp305
a(I152
F98.130099999999999
F33.036799999999999
F8.6213000000000006e-08
(lp306
I0
aI7
aI14
aI21
aI1
aI8
aI15
aI22
aI2
aI9
aI16
aI23
aI3
aI10
aI17
aI24
atp307
a(I153
F135
F33.036799999999999
F8.6213000000000006e-08
(lp308
I0
aI5
aI10
aI15
aI5
aI10
aI15
aI20
aI10
aI15
aI20
aI25
aI15
aI20
aI25
aI30
atp309
a(I154
F171.8699
F33.036799999999999
F8.6213000000000006e-08
(lp310
I0
aI1
aI2
aI3
aI7
aI8
aI9
aI10
aI14
aI15
aI16
aI17
aI21
aI22
aI23
aI24
atp311
a(I155
F188.1301
F33.036799999999999
F8.6213000000000006e-08
(lp312
I3
aI2
aI1
aI0
aI10
aI9
aI8
aI7
aI17
aI16
aI15
aI14
aI24
aI23
aI22
aI21
atp313
a(I156
F225
F33.036799999999999
F8.6213000000000006e-08
(lp314
I15
aI10
aI5
aI0
aI20
aI15
aI10
aI5
aI25
aI20
aI15
aI10
aI30
aI25
aI20
aI15
atp315
a(I157
F261.86989999999997
F33.036799999999999
F8.6213000000000006e-08
(lp316
I21
aI14
aI7
aI0
aI22
aI15
aI8
aI1
aI23
aI16
aI9
aI2
aI24
aI17
aI10
aI3
atp317
a(I158
F278.13010000000003
F33.036799999999999
F8.6213000000000006e-08
(lp318
I24
aI17
aI10
aI3
aI23
aI16
aI9
aI2
aI22
aI15
aI8
aI1
aI21
aI14
aI7
aI0
atp319
a(I159
F315
F33.036799999999999
F8.6213000000000006e-08
(lp320
I30
aI25
aI20
aI15
aI25
aI20
aI15
aI10
aI20
aI15
aI10
aI5
aI15
aI10
aI5
aI0
atp321
a(I160
F351.86989999999997
F33.036799999999999
F8.6213000000000006e-08
(lp322
I24
aI23
aI22
aI21
aI17
aI16
aI15
aI14
aI10
aI9
aI8
aI7
aI3
aI2
aI1
aI0
atp323
a(I161
F33.690100000000001
F31.248799999999999
F8.7919999999999996e-08
(lp324
I18
aI22
aI26
aI30
aI12
aI16
aI20
aI24
aI6
aI10
aI14
aI18
aI0
aI4
aI8
aI12
atp325
a(I162
F56.309899999999999
F31.248799999999999
F8.7919999999999996e-08
(lp326
I12
aI18
aI24
aI30
aI8
aI14
aI20
aI26
aI4
aI10
aI16
aI22
aI0
aI6
aI12
aI18
atp327
a(I163
F123.6901
F31.248799999999999
F8.7919999999999996e-08
(lp328
I0
aI6
aI12
aI18
aI4
aI10
aI16
aI22
aI8
aI14
aI20
aI26
aI12
aI18
aI24
aI30
atp329
a(I164
F146.3099
F31.248799999999999
F8.7919999999999996e-08
(lp330
I0
aI4
aI8
aI12
aI6
aI10
aI14
aI18
aI12
aI16
aI20
aI24
aI18
aI22
aI26
aI30
atp331
a(I165
F213.6901
F31.248799999999999
F8.7919999999999996e-08
(lp332
I12
aI8
aI4
aI0
aI18
aI14
aI10
aI6
aI24
aI20
aI16
aI12
aI30
aI26
aI22
aI18
atp333
a(I166
F236.3099
F31.248799999999999
F8.7919999999999996e-08
(lp334
I18
aI12
aI6
aI0
aI22
aI16
aI10
aI4
aI26
aI20
aI14
aI8
aI30
aI24
aI18
aI12
atp335
a(I167
F303.69009999999997
F31.248799999999999
F8.7919999999999996e-08
(lp336
I30
aI24
aI18
aI12
aI26
aI20
aI14
aI8
aI22
aI16
aI10
aI4
aI18
aI12
aI6
aI0
atp337
a(I168
F326.30990000000003
F31.248799999999999
F8.7919999999999996e-08
(lp338
I30
aI26
aI22
aI18
aI24
aI20
aI16
aI12
aI18
aI14
aI10
aI6
aI12
aI8
aI4
aI0
atp339
a(I169
F15.945399999999999
F30.333100000000002
F8.8761999999999998e-08
(lp340
I21
aI23
aI25
aI27
aI14
aI16
aI18
aI20
aI7
aI9
aI11
aI13
aI0
aI2
aI4
aI6
atp341
a(I170
F74.054599999999994
F30.333100000000002
F8.8761999999999998e-08
(lp342
I6
aI13
aI20
aI27
aI4
aI11
aI18
aI25
aI2
aI9
aI16
aI23
aI0
aI7
aI14
aI21
atp343
a(I171
F105.94540000000001
F30.333100000000002
F8.8761999999999998e-08
(lp344
I0
aI7
aI14
aI21
aI2
aI9
aI16
aI23
aI4
aI11
aI18
aI25
aI6
aI13
aI20
aI27
atp345
a(I172
F164.05459999999999
F30.333100000000002
F8.8761999999999998e-08
(lp346
I0
aI2
aI4
aI6
aI7
aI9
aI11
aI13
aI14
aI16
aI18
aI20
aI21
aI23
aI25
aI27
atp347
a(I173
F195.94540000000001
F30.333100000000002
F8.8761999999999998e-08
(lp348
I6
aI4
aI2
aI0
aI13
aI11
aI9
aI7
aI20
aI18
aI16
aI14
aI27
aI25
aI23
aI21
atp349
a(I174
F254.05459999999999
F30.333100000000002
F8.8761999999999998e-08
(lp350
I21
aI14
aI7
aI0
aI23
aI16
aI9
aI2
aI25
aI18
aI11
aI4
aI27
aI20
aI13
aI6
atp351
a(I175
F285.94540000000001
F30.333100000000002
F8.8761999999999998e-08
(lp352
I27
aI20
aI13
aI6
aI25
aI18
aI11
aI4
aI23
aI16
aI9
aI2
aI21
aI14
aI7
aI0
atp353
a(I176
F344.05459999999999
F30.333100000000002
F8.8761999999999998e-08
(lp354
I27
aI25
aI23
aI21
aI20
aI18
aI16
aI14
aI13
aI11
aI9
aI7
aI6
aI4
aI2
aI0
atp355
a(I177
F23.198599999999999
F25.458200000000001
F9.2854000000000005e-08
(lp356
I21
aI24
aI27
aI30
aI14
aI17
aI20
aI23
aI7
aI10
aI13
aI16
aI0
aI3
aI6
aI9
atp357
a(I178
F66.801400000000001
F25.458200000000001
F9.2854000000000005e-08
(lp358
I9
aI16
aI23
aI30
aI6
aI13
aI20
aI27
aI3
aI10
aI17
aI24
aI0
aI7
aI14
aI21
atp359
a(I179
F113.1986
F25.458200000000001
F9.2854000000000005e-08
(lp360
I0
aI7
aI14
aI21
aI3
aI10
aI17
aI24
aI6
aI13
aI20
aI27
aI9
aI16
aI23
aI30
atp361
a(I180
F156.8014
F25.458200000000001
F9.2854000000000005e-08
(lp362
I0
aI3
aI6
aI9
aI7
aI10
aI13
aI16
aI14
aI17
aI20
aI23
aI21
aI24
aI27
aI30
atp363
a(I181
F203.1986
F25.458200000000001
F9.2854000000000005e-08
(lp364
I9
aI6
aI3
aI0
aI16
aI13
aI10
aI7
aI23
aI20
aI17
aI14
aI30
aI27
aI24
aI21
atp365
a(I182
F246.8014
F25.458200000000001
F9.2854000000000005e-08
(lp366
I21
aI14
aI7
aI0
aI24
aI17
aI10
aI3
aI27
aI20
aI13
aI6
aI30
aI23
aI16
aI9
atp367
a(I183
F293.1986
F25.458200000000001
F9.2854000000000005e-08
(lp368
I30
aI23
aI16
aI9
aI27
aI20
aI13
aI6
aI24
aI17
aI10
aI3
aI21
aI14
aI7
aI0
atp369
a(I184
F336.8014
F25.458200000000001
F9.2854000000000005e-08
(lp370
I30
aI27
aI24
aI21
aI23
aI20
aI17
aI14
aI16
aI13
aI10
aI7
aI9
aI6
aI3
aI0
atp371
a(I185
F0
F18.476800000000001
F9.7538999999999997e-08
(lp372
I24
aI24
aI24
aI24
aI16
aI16
aI16
aI16
aI8
aI8
aI8
aI8
aI0
aI0
aI0
aI0
atp373
a(I186
F90
F18.476800000000001
F9.7538999999999997e-08
(lp374
I0
aI8
aI16
aI24
aI0
aI8
aI16
aI24
aI0
aI8
aI16
aI24
aI0
aI8
aI16
aI24
atp375
a(I187
F180
F18.476800000000001
F9.7538999999999997e-08
(lp376
I0
aI0
aI0
aI0
aI8
aI8
aI8
aI8
aI16
aI16
aI16
aI16
aI24
aI24
aI24
aI24
atp377
a(I188
F270
F18.476800000000001
F9.7538999999999997e-08
(lp378
I24
aI16
aI8
aI0
aI24
aI16
aI8
aI0
aI24
aI16
aI8
aI0
aI24
aI16
aI8
aI0
atp379
a(I189
F7.125
F17.092199999999998
F9.8297999999999998e-08
(lp380
I24
aI25
aI26
aI27
aI16
aI17
aI18
aI19
aI8
aI9
aI10
aI11
aI0
aI1
aI2
aI3
atp381
a(I190
F82.875
F17.092199999999998
F9.8297999999999998e-08
(lp382
I3
aI11
aI19
aI27
aI2
aI10
aI18
aI26
aI1
aI9
aI17
aI25
aI0
aI8
aI16
aI24
atp383
a(I191
F97.125
F17.092199999999998
F9.8297999999999998e-08
(lp384
I0
aI8
aI16
aI24
aI1
aI9
aI17
aI25
aI2
aI10
aI18
aI26
aI3
aI11
aI19
aI27
atp385
a(I192
F172.875
F17.092199999999998
F9.8297999999999998e-08
(lp386
I0
aI1
aI2
aI3
aI8
aI9
aI10
aI11
aI16
aI17
aI18
aI19
aI24
aI25
aI26
aI27
atp387
a(I193
F187.125
F17.092199999999998
F9.8297999999999998e-08
(lp388
I3
aI2
aI1
aI0
aI11
aI10
aI9
aI8
aI19
aI18
aI17
aI16
aI27
aI26
aI25
aI24
atp389
a(I194
F262.875
F17.092199999999998
F9.8297999999999998e-08
(lp390
I24
aI16
aI8
aI0
aI25
aI17
aI9
aI1
aI26
aI18
aI10
aI2
aI27
aI19
aI11
aI3
atp391
a(I195
F277.125
F17.092199999999998
F9.8297999999999998e-08
(lp392
I27
aI19
aI11
aI3
aI26
aI18
aI10
aI2
aI25
aI17
aI9
aI1
aI24
aI16
aI8
aI0
atp393
a(I196
F352.875
F17.092199999999998
F9.8297999999999998e-08
(lp394
I27
aI26
aI25
aI24
aI19
aI18
aI17
aI16
aI11
aI10
aI9
aI8
aI3
aI2
aI1
aI0
atp395
a.